(dp0
cnumpy.core.multiarray
scalar
p1
(cnumpy
dtype
p2
(S'S3'
p3
I0
I1
tp4
Rp5
(I3
S'|'
p6
NNNI3
I1
I0
tp7
bS'owl'
p8
tp9
Rp10
I34
sg1
(g2
(S'S12'
p11
I0
I1
tp12
Rp13
(I3
S'|'
p14
NNNI12
I1
I0
tp15
bS'killer-whale'
p16
tp17
Rp18
I27
sg1
(g2
(S'S5'
p19
I0
I1
tp20
Rp21
(I3
S'|'
p22
NNNI5
I1
I0
tp23
bS'camel'
p24
tp25
Rp26
I4
sg1
(g2
(S'S7'
p27
I0
I1
tp28
Rp29
(I3
S'|'
p30
NNNI7
I1
I0
tp31
bS'dolphin'
p32
tp33
Rp34
I10
sg1
(g2
(S'S3'
p35
I0
I1
tp36
Rp37
(I3
S'|'
p38
NNNI3
I1
I0
tp39
bS'dog'
p40
tp41
Rp42
I9
sg1
(g2
(S'S5'
p43
I0
I1
tp44
Rp45
(I3
S'|'
p46
NNNI5
I1
I0
tp47
bS'goose'
p48
tp49
Rp50
I19
sg1
(g2
(S'S5'
p51
I0
I1
tp52
Rp53
(I3
S'|'
p54
NNNI5
I1
I0
tp55
bS'zebra'
p56
tp57
Rp58
I49
sg1
(g2
(S'S4'
p59
I0
I1
tp60
Rp61
(I3
S'|'
p62
NNNI4
I1
I0
tp63
bS'duck'
p64
tp65
Rp66
I11
sg1
(g2
(S'S6'
p67
I0
I1
tp68
Rp69
(I3
S'|'
p70
NNNI6
I1
I0
tp71
bS'galaxy'
p72
tp73
Rp74
I15
sg1
(g2
(S'S6'
p75
I0
I1
tp76
Rp77
(I3
S'|'
p78
NNNI6
I1
I0
tp79
bS'iguana'
p80
tp81
Rp82
I25
sg1
(g2
(S'S3'
p83
I0
I1
tp84
Rp85
(I3
S'|'
p86
NNNI3
I1
I0
tp87
bS'elk'
p88
tp89
Rp90
I13
sg1
(g2
(S'S5'
p91
I0
I1
tp92
Rp93
(I3
S'|'
p94
NNNI5
I1
I0
tp95
bS'horse'
p96
tp97
Rp98
I22
sg1
(g2
(S'S10'
p99
I0
I1
tp100
Rp101
(I3
S'|'
p102
NNNI10
I1
I0
tp103
bS'speed-boat'
p104
tp105
Rp106
I42
sg1
(g2
(S'S8'
p107
I0
I1
tp108
Rp109
(I3
S'|'
p110
NNNI8
I1
I0
tp111
bS'starfish'
p112
tp113
Rp114
I43
sg1
(g2
(S'S4'
p115
I0
I1
tp116
Rp117
(I3
S'|'
p118
NNNI4
I1
I0
tp119
bS'swan'
p120
tp121
Rp122
I44
sg1
(g2
(S'S4'
p123
I0
I1
tp124
Rp125
(I3
S'|'
p126
NNNI4
I1
I0
tp127
bS'frog'
p128
tp129
Rp130
I14
sg1
(g2
(S'S4'
p131
I0
I1
tp132
Rp133
(I3
S'|'
p134
NNNI4
I1
I0
tp135
bS'toad'
p136
tp137
Rp138
I46
sg1
(g2
(S'S4'
p139
I0
I1
tp140
Rp141
(I3
S'|'
p142
NNNI4
I1
I0
tp143
bS'crab'
p144
tp145
Rp146
I8
sg1
(g2
(S'S8'
p147
I0
I1
tp148
Rp149
(I3
S'|'
p150
NNNI8
I1
I0
tp151
bS'elephant'
p152
tp153
Rp154
I12
sg1
(g2
(S'S10'
p155
I0
I1
tp156
Rp157
(I3
S'|'
p158
NNNI10
I1
I0
tp159
bS'helicopter'
p160
tp161
Rp162
I21
sg1
(g2
(S'S11'
p163
I0
I1
tp164
Rp165
(I3
S'|'
p166
NNNI11
I1
I0
tp167
bS'hummingbird'
p168
tp169
Rp170
I24
sg1
(g2
(S'S4'
p171
I0
I1
tp172
Rp173
(I3
S'|'
p174
NNNI4
I1
I0
tp175
bS'goat'
p176
tp177
Rp178
I17
sg1
(g2
(S'S9'
p179
I0
I1
tp180
Rp181
(I3
S'|'
p182
NNNI9
I1
I0
tp183
bS'porcupine'
p184
tp185
Rp186
I36
sg1
(g2
(S'S11'
p187
I0
I1
tp188
Rp189
(I3
S'|'
p190
NNNI11
I1
I0
tp191
bS'triceratops'
p192
tp193
Rp194
I47
sg1
(g2
(S'S5'
p195
I0
I1
tp196
Rp197
(I3
S'|'
p198
NNNI5
I1
I0
tp199
bS'snail'
p200
tp201
Rp202
I40
sg1
(g2
(S'S7'
p203
I0
I1
tp204
Rp205
(I3
S'|'
p206
NNNI7
I1
I0
tp207
bS'penguin'
p208
tp209
Rp210
I35
sg1
(g2
(S'S7'
p211
I0
I1
tp212
Rp213
(I3
S'|'
p214
NNNI7
I1
I0
tp215
bS'mussels'
p216
tp217
Rp218
I31
sg1
(g2
(S'S8'
p219
I0
I1
tp220
Rp221
(I3
S'|'
p222
NNNI8
I1
I0
tp223
bS'kangaroo'
p224
tp225
Rp226
I26
sg1
(g2
(S'S4'
p227
I0
I1
tp228
Rp229
(I3
S'|'
p230
NNNI4
I1
I0
tp231
bS'mars'
p232
tp233
Rp234
I30
sg1
(g2
(S'S9'
p235
I0
I1
tp236
Rp237
(I3
S'|'
p238
NNNI9
I1
I0
tp239
bS'airplanes'
p240
tp241
Rp242
I0
sg1
(g2
(S'S4'
p243
I0
I1
tp244
Rp245
(I3
S'|'
p246
NNNI4
I1
I0
tp247
bS'bear'
p248
tp249
Rp250
I2
sg1
(g2
(S'S7'
p251
I0
I1
tp252
Rp253
(I3
S'|'
p254
NNNI7
I1
I0
tp255
bS'giraffe'
p256
tp257
Rp258
I16
sg1
(g2
(S'S5'
p259
I0
I1
tp260
Rp261
(I3
S'|'
p262
NNNI5
I1
I0
tp263
bS'snake'
p264
tp265
Rp266
I41
sg1
(g2
(S'S5'
p267
I0
I1
tp268
Rp269
(I3
S'|'
p270
NNNI5
I1
I0
tp271
bS'llama'
p272
tp273
Rp274
I29
sg1
(g2
(S'S10'
p275
I0
I1
tp276
Rp277
(I3
S'|'
p278
NNNI10
I1
I0
tp279
bS'teddy-bear'
p280
tp281
Rp282
I45
sg1
(g2
(S'S8'
p283
I0
I1
tp284
Rp285
(I3
S'|'
p286
NNNI8
I1
I0
tp287
bS'goldfish'
p288
tp289
Rp290
I18
sg1
(g2
(S'S8'
p291
I0
I1
tp292
Rp293
(I3
S'|'
p294
NNNI8
I1
I0
tp295
bS'leopards'
p296
tp297
Rp298
I28
sg1
(g2
(S'S6'
p299
I0
I1
tp300
Rp301
(I3
S'|'
p302
NNNI6
I1
I0
tp303
bS'saturn'
p304
tp305
Rp306
I38
sg1
(g2
(S'S15'
p307
I0
I1
tp308
Rp309
(I3
S'|'
p310
NNNI15
I1
I0
tp311
bS'hot-air-balloon'
p312
tp313
Rp314
I23
sg1
(g2
(S'S3'
p315
I0
I1
tp316
Rp317
(I3
S'|'
p318
NNNI3
I1
I0
tp319
bS'bat'
p320
tp321
Rp322
I1
sg1
(g2
(S'S9'
p323
I0
I1
tp324
Rp325
(I3
S'|'
p326
NNNI9
I1
I0
tp327
bS'cormorant'
p328
tp329
Rp330
I7
sg1
(g2
(S'S7'
p331
I0
I1
tp332
Rp333
(I3
S'|'
p334
NNNI7
I1
I0
tp335
bS'unicorn'
p336
tp337
Rp338
I48
sg1
(g2
(S'S5'
p339
I0
I1
tp340
Rp341
(I3
S'|'
p342
NNNI5
I1
I0
tp343
bS'conch'
p344
tp345
Rp346
I6
sg1
(g2
(S'S5'
p347
I0
I1
tp348
Rp349
(I3
S'|'
p350
NNNI5
I1
I0
tp351
bS'blimp'
p352
tp353
Rp354
I3
sg1
(g2
(S'S7'
p355
I0
I1
tp356
Rp357
(I3
S'|'
p358
NNNI7
I1
I0
tp359
bS'ostrich'
p360
tp361
Rp362
I33
sg1
(g2
(S'S7'
p363
I0
I1
tp364
Rp365
(I3
S'|'
p366
NNNI7
I1
I0
tp367
bS'gorilla'
p368
tp369
Rp370
I20
sg1
(g2
(S'S7'
p371
I0
I1
tp372
Rp373
(I3
S'|'
p374
NNNI7
I1
I0
tp375
bS'raccoon'
p376
tp377
Rp378
I37
sg1
(g2
(S'S5'
p379
I0
I1
tp380
Rp381
(I3
S'|'
p382
NNNI5
I1
I0
tp383
bS'comet'
p384
tp385
Rp386
I5
sg1
(g2
(S'S5'
p387
I0
I1
tp388
Rp389
(I3
S'|'
p390
NNNI5
I1
I0
tp391
bS'skunk'
p392
tp393
Rp394
I39
sg1
(g2
(S'S7'
p395
I0
I1
tp396
Rp397
(I3
S'|'
p398
NNNI7
I1
I0
tp399
bS'octopus'
p400
tp401
Rp402
I32
s.