(lp0
S'flat_size'
p1
aS'flat_aspect'
p2
aS'flat_mean'
p3
aS'flat_var'
p4
aS'rb_ratio'
p5
aS'bg_ratio'
p6
aS'rg_ratio'
p7
aS'xhist_max'
p8
aS'xhist_min'
p9
aS'xhist_var'
p10
aS'xhist_skew'
p11
aS'xhist_kur'
p12
aS'yhist_max'
p13
aS'yhist_min'
p14
aS'yhist_var'
p15
aS'yhist_skew'
p16
aS'yhist_kur'
p17
aS'dge_density'
p18
aS'thresh_size'
p19
aS'num_segments'
p20
aS'largest_segment'
p21
aS'average_segment'
p22
aS'var_segment'
p23
a.