(lp0
S'flat_aspect'
p1
aS'flat_mean'
p2
aS'flat_var'
p3
aS'rb_ratio'
p4
aS'bg_ratio'
p5
aS'rg_ratio'
p6
aS'xhist_max'
p7
aS'xhist_min'
p8
aS'xhist_var'
p9
aS'xhist_skew'
p10
aS'xhist_kur'
p11
aS'yhist_max'
p12
aS'yhist_min'
p13
aS'yhist_var'
p14
aS'yhist_skew'
p15
aS'yhist_kur'
p16
a.