(lp0
S'flat_aspect'
p1
aS'flat_mean'
p2
aS'flat_var'
p3
aS'redness'
p4
aS'blueness'
p5
aS'greeness'
p6
aS'xhist_max'
p7
aS'xhist_min'
p8
aS'xhist_var'
p9
aS'yhist_max'
p10
aS'yhist_min'
p11
aS'yhist_var'
p12
a.